target datalayout = "e-m:e-p270:32:32-p271:32:32-p272:64:64-i64:64-i128:128-f80:128-n8:16:32:64-S128"
target triple = "x86_64-pc-linux-gnu"

%struct.sockaddr_storage = type { i16, [118 x i8], i64 }
%struct.slurmdb_federation_rec_t = type { ptr, i32, ptr }
%struct.slurmdb_cluster_rec = type { ptr, i16, i64, %struct.sockaddr_storage, ptr, i32, i16, ptr, i16, %struct.slurmdb_cluster_fed_t, i32, %union.pthread_mutex_t, ptr, ptr, ptr, i16, ptr, ptr }
%struct.slurmdb_cluster_fed_t = type { ptr, i32, ptr, ptr, ptr, i32, i8, i8 }
%union.pthread_mutex_t = type { %struct.__pthread_mutex_s }
%struct.__pthread_mutex_s = type { i32, i32, i32, i32, i32, i16, i16, %struct.__pthread_internal_list }
%struct.__pthread_internal_list = type { ptr, ptr }

; Function Attrs: nounwind uwtable
define dso_local zeroext i1 @cluster_in_federation(ptr noundef %0, ptr noundef %1) #0 {
  %3 = alloca i1, align 1
  %4 = alloca ptr, align 8
  %5 = alloca ptr, align 8
  %6 = alloca ptr, align 8
  %7 = alloca ptr, align 8
  %8 = alloca ptr, align 8
  %9 = alloca i8, align 1
  %10 = alloca i32, align 4
  store ptr %0, ptr %4, align 8
  store ptr %1, ptr %5, align 8
  call void @llvm.lifetime.start.p0(i64 8, ptr %6) #11
  %11 = load ptr, ptr %4, align 8
  store ptr %11, ptr %6, align 8
  call void @llvm.lifetime.start.p0(i64 8, ptr %7) #11
  call void @llvm.lifetime.start.p0(i64 8, ptr %8) #11
  call void @llvm.lifetime.start.p0(i64 1, ptr %9) #11
  store i8 0, ptr %9, align 1
  %12 = load ptr, ptr %6, align 8
  %13 = icmp ne ptr %12, null
  br i1 %13, label %14, label %19

14:                                               ; preds = %2
  %15 = load ptr, ptr %6, align 8
  %16 = getelementptr inbounds nuw %struct.slurmdb_federation_rec_t, ptr %15, i32 0, i32 2
  %17 = load ptr, ptr %16, align 8
  %18 = icmp ne ptr %17, null
  br i1 %18, label %22, label %19

19:                                               ; preds = %14, %2
  %20 = load i8, ptr %9, align 1, !range !16, !noundef !17
  %21 = trunc i8 %20 to i1
  store i1 %21, ptr %3, align 1
  store i32 1, ptr %10, align 4
  br label %44

22:                                               ; preds = %14
  %23 = load ptr, ptr %6, align 8
  %24 = getelementptr inbounds nuw %struct.slurmdb_federation_rec_t, ptr %23, i32 0, i32 2
  %25 = load ptr, ptr %24, align 8
  %26 = call ptr @list_iterator_create(ptr noundef %25)
  store ptr %26, ptr %8, align 8
  br label %27

27:                                               ; preds = %39, %22
  %28 = load ptr, ptr %8, align 8
  %29 = call ptr @list_next(ptr noundef %28)
  store ptr %29, ptr %7, align 8
  %30 = icmp ne ptr %29, null
  br i1 %30, label %31, label %40

31:                                               ; preds = %27
  %32 = load ptr, ptr %7, align 8
  %33 = getelementptr inbounds nuw %struct.slurmdb_cluster_rec, ptr %32, i32 0, i32 12
  %34 = load ptr, ptr %33, align 8
  %35 = load ptr, ptr %5, align 8
  %36 = call i32 @xstrcasecmp(ptr noundef %34, ptr noundef %35)
  %37 = icmp ne i32 %36, 0
  br i1 %37, label %39, label %38

38:                                               ; preds = %31
  store i8 1, ptr %9, align 1
  br label %40

39:                                               ; preds = %31
  br label %27, !llvm.loop !70

40:                                               ; preds = %38, %27
  %41 = load ptr, ptr %8, align 8
  call void @list_iterator_destroy(ptr noundef %41)
  %42 = load i8, ptr %9, align 1, !range !16, !noundef !17
  %43 = trunc i8 %42 to i1
  store i1 %43, ptr %3, align 1
  store i32 1, ptr %10, align 4
  br label %44

44:                                               ; preds = %40, %19
  call void @llvm.lifetime.end.p0(i64 1, ptr %9) #11
  call void @llvm.lifetime.end.p0(i64 8, ptr %8) #11
  call void @llvm.lifetime.end.p0(i64 8, ptr %7) #11
  call void @llvm.lifetime.end.p0(i64 8, ptr %6) #11
  %45 = load i1, ptr %3, align 1
  ret i1 %45
}