; Function Attrs: nounwind uwtable
define dso_local noundef zeroext i1 @cluster_in_federation(ptr noundef readonly captures(address_is_null) %0, ptr noundef %1) local_unnamed_addr #1 {
  %.not = icmp eq ptr %0, null
  br i1 %.not, label %15, label %3

3:                                                ; preds = %2
  %4 = getelementptr inbounds nuw i8, ptr %0, i64 16
  %5 = load ptr, ptr %4, align 8
  %.not14 = icmp eq ptr %5, null
  br i1 %.not14, label %15, label %6

6:                                                ; preds = %3
  %7 = tail call ptr @list_iterator_create(ptr noundef nonnull %5) #24
  br label %8

8:                                                ; preds = %10, %6
  %9 = tail call ptr @list_next(ptr noundef %7) #24
  %.not15.not.not.not.not.not = icmp ne ptr %9, null
  br i1 %.not15.not.not.not.not.not, label %10, label %14

10:                                               ; preds = %8
  %11 = getelementptr inbounds nuw i8, ptr %9, i64 280
  %12 = load ptr, ptr %11, align 8
  %13 = tail call i32 @xstrcasecmp(ptr noundef %12, ptr noundef %1) #24
  %.not16 = icmp eq i32 %13, 0
  br i1 %.not16, label %14, label %8, !llvm.loop !71

14:                                               ; preds = %10, %8
  tail call void @list_iterator_destroy(ptr noundef %7) #24
  br label %15

15:                                               ; preds = %2, %3, %14
  %.010 = phi i1 [ %.not15.not.not.not.not.not, %14 ], [ false, %3 ], [ false, %2 ]
  ret i1 %.010
}